; Function Attrs: mustprogress uwtable
define void @_ZN3net16HpackInputStream11ConsumeBitsEm(ptr noundef nonnull align 8 captures(none) dereferenceable(33) %0, i64 noundef %1) local_unnamed_addr #3 align 2 personality ptr @__gxx_personality_v0 {
  %3 = alloca i64, align 8
  %4 = alloca i64, align 8
  %5 = alloca %"class.logging::LogMessage", align 8
  %6 = alloca i64, align 8
  %7 = alloca i32, align 4
  %8 = alloca %"class.logging::LogMessage", align 8
  call void @llvm.lifetime.start.p0(i64 8, ptr nonnull %3) #18
  %9 = getelementptr inbounds nuw i8, ptr %0, i64 16
  %10 = load i64, ptr %9, align 8, !tbaa !16
  %11 = add i64 %10, %1
  %12 = lshr i64 %11, 3
  store i64 %12, ptr %3, align 8, !tbaa !8
  %13 = and i64 %11, 7
  store i64 %13, ptr %9, align 8, !tbaa !16
  call void @llvm.lifetime.start.p0(i64 8, ptr nonnull %4) #18
  %14 = getelementptr inbounds nuw i8, ptr %0, i64 8
  %15 = load i64, ptr %14, align 8, !tbaa !10
  store i64 %15, ptr %4, align 8, !tbaa !8
  %.not.i = icmp ult i64 %15, %12
  br i1 %.not.i, label %_ZN7logging11CheckGEImplImmEEPNSt7__cxx1112basic_stringIcSt11char_traitsIcESaIcEEERKT_RKT0_PKc.exit, label %_ZN7logging11CheckGEImplImmEEPNSt7__cxx1112basic_stringIcSt11char_traitsIcESaIcEEERKT_RKT0_PKc.exit.thread

_ZN7logging11CheckGEImplImmEEPNSt7__cxx1112basic_stringIcSt11char_traitsIcESaIcEEERKT_RKT0_PKc.exit.thread: ; preds = %2
  call void @llvm.lifetime.end.p0(i64 8, ptr nonnull %4) #18
  br label %18

_ZN7logging11CheckGEImplImmEEPNSt7__cxx1112basic_stringIcSt11char_traitsIcESaIcEEERKT_RKT0_PKc.exit: ; preds = %2
  %16 = call noundef ptr @_ZN7logging17MakeCheckOpStringImmEEPNSt7__cxx1112basic_stringIcSt11char_traitsIcESaIcEEERKT_RKT0_PKc(ptr noundef nonnull align 8 dereferenceable(8) %4, ptr noundef nonnull align 8 dereferenceable(8) %3, ptr noundef nonnull @.str.3)
  call void @llvm.lifetime.end.p0(i64 8, ptr nonnull %4) #18
  %.not.i2 = icmp eq ptr %16, null
  br i1 %.not.i2, label %18, label %17

17:                                               ; preds = %_ZN7logging11CheckGEImplImmEEPNSt7__cxx1112basic_stringIcSt11char_traitsIcESaIcEEERKT_RKT0_PKc.exit
  call void @llvm.lifetime.start.p0(i64 408, ptr nonnull %5) #18
  call void @_ZN7logging10LogMessageC1EPKciPNSt7__cxx1112basic_stringIcSt11char_traitsIcESaIcEEE(ptr noundef nonnull align 8 dereferenceable(404) %5, ptr noundef nonnull @.str, i32 noundef 226, ptr noundef nonnull %16)
  call void @_ZN7logging10LogMessageD1Ev(ptr noundef nonnull align 8 dereferenceable(404) %5) #18
  call void @llvm.lifetime.end.p0(i64 408, ptr nonnull %5) #18
  br label %18

18:                                               ; preds = %_ZN7logging11CheckGEImplImmEEPNSt7__cxx1112basic_stringIcSt11char_traitsIcESaIcEEERKT_RKT0_PKc.exit.thread, %_ZN7logging11CheckGEImplImmEEPNSt7__cxx1112basic_stringIcSt11char_traitsIcESaIcEEERKT_RKT0_PKc.exit, %17
  %19 = load i64, ptr %9, align 8, !tbaa !16
  %.not = icmp eq i64 %19, 0
  br i1 %.not, label %24, label %20

20:                                               ; preds = %18
  call void @llvm.lifetime.start.p0(i64 8, ptr nonnull %6) #18
  %21 = load i64, ptr %14, align 8, !tbaa !10
  store i64 %21, ptr %6, align 8, !tbaa !8
  call void @llvm.lifetime.start.p0(i64 4, ptr nonnull %7) #18
  store i32 0, ptr %7, align 4, !tbaa !19
  %.not12 = icmp eq i64 %21, 0
  br i1 %.not12, label %_ZN7logging11CheckGTImplImjEEPNSt7__cxx1112basic_stringIcSt11char_traitsIcESaIcEEERKT_RKT0_PKc.exit, label %_ZN7logging11CheckGTImplImjEEPNSt7__cxx1112basic_stringIcSt11char_traitsIcESaIcEEERKT_RKT0_PKc.exit.thread

_ZN7logging11CheckGTImplImjEEPNSt7__cxx1112basic_stringIcSt11char_traitsIcESaIcEEERKT_RKT0_PKc.exit.thread: ; preds = %20
  call void @llvm.lifetime.end.p0(i64 4, ptr nonnull %7) #18
  call void @llvm.lifetime.end.p0(i64 8, ptr nonnull %6) #18
  br label %24

_ZN7logging11CheckGTImplImjEEPNSt7__cxx1112basic_stringIcSt11char_traitsIcESaIcEEERKT_RKT0_PKc.exit: ; preds = %20
  %22 = call noundef ptr @_ZN7logging17MakeCheckOpStringImjEEPNSt7__cxx1112basic_stringIcSt11char_traitsIcESaIcEEERKT_RKT0_PKc(ptr noundef nonnull align 8 dereferenceable(8) %6, ptr noundef nonnull align 4 dereferenceable(4) %7, ptr noundef nonnull @.str.4)
  call void @llvm.lifetime.end.p0(i64 4, ptr nonnull %7) #18
  call void @llvm.lifetime.end.p0(i64 8, ptr nonnull %6) #18
  %.not.i4 = icmp eq ptr %22, null
  br i1 %.not.i4, label %24, label %23

23:                                               ; preds = %_ZN7logging11CheckGTImplImjEEPNSt7__cxx1112basic_stringIcSt11char_traitsIcESaIcEEERKT_RKT0_PKc.exit
  call void @llvm.lifetime.start.p0(i64 408, ptr nonnull %8) #18
  call void @_ZN7logging10LogMessageC1EPKciPNSt7__cxx1112basic_stringIcSt11char_traitsIcESaIcEEE(ptr noundef nonnull align 8 dereferenceable(404) %8, ptr noundef nonnull @.str, i32 noundef 228, ptr noundef nonnull %22)
  call void @_ZN7logging10LogMessageD1Ev(ptr noundef nonnull align 8 dereferenceable(404) %8) #18
  call void @llvm.lifetime.end.p0(i64 408, ptr nonnull %8) #18
  br label %24

24:                                               ; preds = %23, %_ZN7logging11CheckGTImplImjEEPNSt7__cxx1112basic_stringIcSt11char_traitsIcESaIcEEERKT_RKT0_PKc.exit, %_ZN7logging11CheckGTImplImjEEPNSt7__cxx1112basic_stringIcSt11char_traitsIcESaIcEEERKT_RKT0_PKc.exit.thread, %18
  %25 = load i64, ptr %3, align 8, !tbaa !8
  %26 = load ptr, ptr %0, align 8, !tbaa !17
  %27 = getelementptr inbounds nuw i8, ptr %26, i64 %25
  store ptr %27, ptr %0, align 8, !tbaa !17
  %28 = load i64, ptr %14, align 8, !tbaa !10
  %29 = sub i64 %28, %25
  store i64 %29, ptr %14, align 8, !tbaa !10
  %30 = getelementptr inbounds nuw i8, ptr %0, i64 28
  %31 = load i32, ptr %30, align 4, !tbaa !20
  %32 = trunc i64 %25 to i32
  %33 = add i32 %31, %32
  store i32 %33, ptr %30, align 4, !tbaa !20
  call void @llvm.lifetime.end.p0(i64 8, ptr nonnull %3) #18
  ret void
}